target datalayout = "e-m:e-p270:32:32-p271:32:32-p272:64:64-i64:64-i128:128-f80:128-n8:16:32:64-S128"
target triple = "x86_64-pc-linux-gnu"

%struct.expert_field = type { i32, i32 }

@ei_bssgp_missing_mandatory_element = internal global %struct.expert_field zeroinitializer, align 4
@.str.6 = private unnamed_addr constant [71 x i8] c"Missing Mandatory element (0x%02x) %s%s, rest of dissection is suspect\00", align 1
@ei_bssgp_extraneous_data = internal global %struct.expert_field zeroinitializer, align 4
@.str.756 = private unnamed_addr constant [31 x i8] c" - Destination Cell Identifier\00", align 1
@.str.757 = private unnamed_addr constant [26 x i8] c" - Source Cell Identifier\00", align 1

; Function Attrs: null_pointer_is_valid sspstrong uwtable
define internal void @bssgp_ran_inf_request(ptr noundef %0, ptr noundef %1, ptr noundef %2, i32 noundef %3, i32 noundef %4) #1 {
  %6 = alloca ptr, align 8
  %7 = alloca ptr, align 8
  %8 = alloca ptr, align 8
  %9 = alloca i32, align 4
  %10 = alloca i32, align 4
  %11 = alloca i32, align 4
  %12 = alloca i32, align 4
  %13 = alloca i32, align 4
  %14 = alloca i32, align 4
  store ptr %0, ptr %6, align 8
  store ptr %1, ptr %7, align 8
  store ptr %2, ptr %8, align 8
  store i32 %3, ptr %9, align 4
  store i32 %4, ptr %10, align 4
  call void @llvm.lifetime.start.p0(i64 4, ptr %11) #4
  call void @llvm.lifetime.start.p0(i64 4, ptr %12) #4
  call void @llvm.lifetime.start.p0(i64 4, ptr %13) #4
  %15 = load i32, ptr %9, align 4
  store i32 %15, ptr %11, align 4
  %16 = load i32, ptr %10, align 4
  store i32 %16, ptr %13, align 4
  %17 = load i32, ptr %13, align 4
  %18 = icmp sgt i32 %17, 0
  br i1 %18, label %19, label %35

19:                                               ; preds = %5
  %20 = load ptr, ptr %6, align 8
  %21 = load ptr, ptr %7, align 8
  %22 = load ptr, ptr %8, align 8
  %23 = load i32, ptr %11, align 4
  %24 = load i32, ptr %13, align 4
  %25 = call zeroext i16 @elem_telv(ptr noundef %20, ptr noundef %21, ptr noundef %22, i8 noundef zeroext 84, i32 noundef 13, i32 noundef 62, i32 noundef %23, i32 noundef %24, ptr noundef @.str.756)
  %26 = zext i16 %25 to i32
  store i32 %26, ptr %12, align 4
  %27 = icmp ugt i32 %26, 0
  br i1 %27, label %28, label %35

28:                                               ; preds = %19
  %29 = load i32, ptr %12, align 4
  %30 = load i32, ptr %11, align 4
  %31 = add i32 %30, %29
  store i32 %31, ptr %11, align 4
  %32 = load i32, ptr %12, align 4
  %33 = load i32, ptr %13, align 4
  %34 = sub i32 %33, %32
  store i32 %34, ptr %13, align 4
  br label %42

35:                                               ; preds = %19, %5
  %36 = load ptr, ptr %7, align 8
  %37 = load ptr, ptr %8, align 8
  %38 = load ptr, ptr %6, align 8
  %39 = load i32, ptr %11, align 4
  %40 = call ptr @get_gsm_a_msg_string(i32 noundef 13, i32 noundef 62)
  %41 = call ptr (ptr, ptr, ptr, ptr, i32, i32, ptr, ...) @proto_tree_add_expert_format(ptr noundef %36, ptr noundef %37, ptr noundef @ei_bssgp_missing_mandatory_element, ptr noundef %38, i32 noundef %39, i32 noundef 0, ptr noundef @.str.6, i32 noundef 84, ptr noundef %40, ptr noundef @.str.756)
  br label %42

42:                                               ; preds = %35, %28
  %43 = load i32, ptr %13, align 4
  %44 = icmp sgt i32 %43, 0
  br i1 %44, label %45, label %61

45:                                               ; preds = %42
  %46 = load ptr, ptr %6, align 8
  %47 = load ptr, ptr %7, align 8
  %48 = load ptr, ptr %8, align 8
  %49 = load i32, ptr %11, align 4
  %50 = load i32, ptr %13, align 4
  %51 = call zeroext i16 @elem_telv(ptr noundef %46, ptr noundef %47, ptr noundef %48, i8 noundef zeroext 84, i32 noundef 13, i32 noundef 62, i32 noundef %49, i32 noundef %50, ptr noundef @.str.757)
  %52 = zext i16 %51 to i32
  store i32 %52, ptr %12, align 4
  %53 = icmp ugt i32 %52, 0
  br i1 %53, label %54, label %61

54:                                               ; preds = %45
  %55 = load i32, ptr %12, align 4
  %56 = load i32, ptr %11, align 4
  %57 = add i32 %56, %55
  store i32 %57, ptr %11, align 4
  %58 = load i32, ptr %12, align 4
  %59 = load i32, ptr %13, align 4
  %60 = sub i32 %59, %58
  store i32 %60, ptr %13, align 4
  br label %68

61:                                               ; preds = %45, %42
  %62 = load ptr, ptr %7, align 8
  %63 = load ptr, ptr %8, align 8
  %64 = load ptr, ptr %6, align 8
  %65 = load i32, ptr %11, align 4
  %66 = call ptr @get_gsm_a_msg_string(i32 noundef 13, i32 noundef 62)
  %67 = call ptr (ptr, ptr, ptr, ptr, i32, i32, ptr, ...) @proto_tree_add_expert_format(ptr noundef %62, ptr noundef %63, ptr noundef @ei_bssgp_missing_mandatory_element, ptr noundef %64, i32 noundef %65, i32 noundef 0, ptr noundef @.str.6, i32 noundef 84, ptr noundef %66, ptr noundef @.str.757)
  br label %68

68:                                               ; preds = %61, %54
  %69 = load i32, ptr %13, align 4
  %70 = icmp sle i32 %69, 0
  br i1 %70, label %71, label %72

71:                                               ; preds = %68
  store i32 1, ptr %14, align 4
  br label %104

72:                                               ; preds = %68
  %73 = load ptr, ptr %6, align 8
  %74 = load ptr, ptr %7, align 8
  %75 = load ptr, ptr %8, align 8
  %76 = load i32, ptr %11, align 4
  %77 = load i32, ptr %13, align 4
  %78 = call zeroext i16 @elem_telv(ptr noundef %73, ptr noundef %74, ptr noundef %75, i8 noundef zeroext 87, i32 noundef 13, i32 noundef 51, i32 noundef %76, i32 noundef %77, ptr noundef null)
  %79 = zext i16 %78 to i32
  store i32 %79, ptr %12, align 4
  %80 = icmp ugt i32 %79, 0
  br i1 %80, label %81, label %88

81:                                               ; preds = %72
  %82 = load i32, ptr %12, align 4
  %83 = load i32, ptr %11, align 4
  %84 = add i32 %83, %82
  store i32 %84, ptr %11, align 4
  %85 = load i32, ptr %12, align 4
  %86 = load i32, ptr %13, align 4
  %87 = sub i32 %86, %85
  store i32 %87, ptr %13, align 4
  br label %88

88:                                               ; preds = %81, %72
  %89 = load i32, ptr %13, align 4
  %90 = icmp ugt i32 %89, 0
  br i1 %90, label %91, label %103

91:                                               ; preds = %88
  %92 = load ptr, ptr %7, align 8
  %93 = load ptr, ptr %8, align 8
  %94 = load ptr, ptr %6, align 8
  %95 = load i32, ptr %11, align 4
  %96 = load i32, ptr %13, align 4
  %97 = sub i32 %96, 0
  %98 = call ptr @proto_tree_add_expert(ptr noundef %92, ptr noundef %93, ptr noundef @ei_bssgp_extraneous_data, ptr noundef %94, i32 noundef %95, i32 noundef %97)
  %99 = load i32, ptr %13, align 4
  %100 = sub i32 %99, 0
  %101 = load i32, ptr %11, align 4
  %102 = add i32 %101, %100
  store i32 %102, ptr %11, align 4
  br label %103

103:                                              ; preds = %91, %88
  store i32 0, ptr %14, align 4
  br label %104

104:                                              ; preds = %103, %71
  call void @llvm.lifetime.end.p0(i64 4, ptr %13) #4
  call void @llvm.lifetime.end.p0(i64 4, ptr %12) #4
  call void @llvm.lifetime.end.p0(i64 4, ptr %11) #4
  %105 = load i32, ptr %14, align 4
  switch i32 %105, label %107 [
    i32 0, label %106
    i32 1, label %106
  ]

106:                                              ; preds = %104, %104
  ret void

107:                                              ; preds = %104
  unreachable
}